; Function Attrs: mustprogress nounwind uwtable
define internal void @_ZN12_GLOBAL__N_125MicrosoftNumberingContextD2Ev(ptr nocapture noundef nonnull align 8 dereferenceable(52) %0) unnamed_addr #0 align 2 {
  store ptr getelementptr inbounds inrange(-16, 64) (i8, ptr @_ZTVN12_GLOBAL__N_125MicrosoftNumberingContextE, i64 16), ptr %0, align 8
  %2 = getelementptr inbounds nuw i8, ptr %0, i64 16
  %3 = load ptr, ptr %2, align 8
  %4 = getelementptr inbounds i8, ptr %0, i64 32
  %5 = load i32, ptr %4, align 8
  %6 = zext i32 %5 to i64
  %7 = shl nuw nsw i64 %6, 4
  tail call void @_ZN4llvm17deallocate_bufferEPvmm(ptr noundef %3, i64 noundef %7, i64 noundef 8) #12
  ret void
}